target datalayout = "e-m:e-p270:32:32-p271:32:32-p272:64:64-i64:64-i128:128-f80:128-n8:16:32:64-S128"
target triple = "x86_64-pc-linux-gnu"

@.str.48 = private unnamed_addr constant [6 x i8] c" - %s\00", align 1
@.str.49 = private unnamed_addr constant [8 x i8] c"Unknown\00", align 1
@hf_nas_5gs_sm_length = internal global i32 0, align 4
@hf_nas_5gs_sm_mapd_eps_b_cont_id = internal global i32 0, align 4
@hf_nas_5gs_sm_mapd_eps_b_cont_param_id = internal global i32 0, align 4
@hf_nas_5gs_sm_mapd_eps_b_cont_eps_param_cont = internal global i32 0, align 4
@ett_nas_5gs_sm_mapd_eps_b_cont = internal global i32 0, align 4
@ett_nas_5gs_sm_mapd_eps_b_cont_params_list = internal global i32 0, align 4
@de_nas_5gs_sm_mapped_eps_b_cont.mapd_eps_b_cont_flags = internal constant [5 x ptr] [ptr @hf_nas_5gs_sm_mapd_eps_b_cont_opt_code, ptr @hf_nas_5gs_spare_b5, ptr @hf_nas_5gs_sm_mapd_eps_b_cont_E, ptr @hf_nas_5gs_sm_mapd_eps_b_cont_num_eps_parms, ptr null], align 16
@de_nas_5gs_sm_mapped_eps_b_cont.mapd_eps_b_cont_flags_modify = internal constant [5 x ptr] [ptr @hf_nas_5gs_sm_mapd_eps_b_cont_opt_code, ptr @hf_nas_5gs_spare_b5, ptr @hf_nas_5gs_sm_mapd_eps_b_cont_E_mod, ptr @hf_nas_5gs_sm_mapd_eps_b_cont_num_eps_parms, ptr null], align 16
@.str.1768 = private unnamed_addr constant [29 x i8] c"Mapped EPS bearer context %u\00", align 1
@.str.1769 = private unnamed_addr constant [17 x i8] c"EPS parameter %u\00", align 1

; Function Attrs: null_pointer_is_valid sspstrong uwtable
define internal zeroext i16 @de_nas_5gs_sm_mapped_eps_b_cont(ptr noundef %0, ptr noundef %1, ptr noundef %2, i32 noundef %3, i32 noundef %4, ptr noundef %5, i32 noundef %6) #0 {
  %8 = alloca ptr, align 8
  %9 = alloca ptr, align 8
  %10 = alloca ptr, align 8
  %11 = alloca i32, align 4
  %12 = alloca i32, align 4
  %13 = alloca ptr, align 8
  %14 = alloca i32, align 4
  %15 = alloca i32, align 4
  %16 = alloca ptr, align 8
  %17 = alloca ptr, align 8
  %18 = alloca i32, align 4
  %19 = alloca i32, align 4
  %20 = alloca i32, align 4
  %21 = alloca i32, align 4
  %22 = alloca i32, align 4
  %23 = alloca ptr, align 8
  %24 = alloca i32, align 4
  store ptr %0, ptr %8, align 8
  store ptr %1, ptr %9, align 8
  store ptr %2, ptr %10, align 8
  store i32 %3, ptr %11, align 4
  store i32 %4, ptr %12, align 4
  store ptr %5, ptr %13, align 8
  store i32 %6, ptr %14, align 4
  call void @llvm.lifetime.start.p0(i64 4, ptr %15) #11
  call void @llvm.lifetime.start.p0(i64 8, ptr %16) #11
  call void @llvm.lifetime.start.p0(i64 8, ptr %17) #11
  call void @llvm.lifetime.start.p0(i64 4, ptr %18) #11
  call void @llvm.lifetime.start.p0(i64 4, ptr %19) #11
  call void @llvm.lifetime.start.p0(i64 4, ptr %20) #11
  call void @llvm.lifetime.start.p0(i64 4, ptr %21) #11
  call void @llvm.lifetime.start.p0(i64 4, ptr %22) #11
  call void @llvm.lifetime.start.p0(i64 8, ptr %23) #11
  call void @llvm.lifetime.start.p0(i64 4, ptr %24) #11
  %25 = load i32, ptr %11, align 4
  store i32 %25, ptr %15, align 4
  store i32 1, ptr %18, align 4
  br label %26

26:                                               ; preds = %159, %7
  %27 = load i32, ptr %15, align 4
  %28 = load i32, ptr %11, align 4
  %29 = sub i32 %27, %28
  %30 = load i32, ptr %12, align 4
  %31 = icmp ult i32 %29, %30
  br i1 %31, label %32, label %162

32:                                               ; preds = %26
  %33 = load ptr, ptr %9, align 8
  %34 = load ptr, ptr %8, align 8
  %35 = load i32, ptr %15, align 4
  %36 = load i32, ptr @ett_nas_5gs_sm_mapd_eps_b_cont, align 4
  %37 = load i32, ptr %18, align 4
  %38 = call ptr (ptr, ptr, i32, i32, i32, ptr, ptr, ...) @proto_tree_add_subtree_format(ptr noundef %33, ptr noundef %34, i32 noundef %35, i32 noundef -1, i32 noundef %36, ptr noundef %23, ptr noundef @.str.1768, i32 noundef %37)
  store ptr %38, ptr %16, align 8
  %39 = load ptr, ptr %16, align 8
  %40 = load i32, ptr @hf_nas_5gs_sm_mapd_eps_b_cont_id, align 4
  %41 = load ptr, ptr %8, align 8
  %42 = load i32, ptr %15, align 4
  %43 = call ptr @proto_tree_add_item(ptr noundef %39, i32 noundef %40, ptr noundef %41, i32 noundef %42, i32 noundef 1, i32 noundef 0)
  %44 = load i32, ptr %15, align 4
  %45 = add i32 %44, 1
  store i32 %45, ptr %15, align 4
  %46 = load ptr, ptr %16, align 8
  %47 = load i32, ptr @hf_nas_5gs_sm_length, align 4
  %48 = load ptr, ptr %8, align 8
  %49 = load i32, ptr %15, align 4
  %50 = call ptr @proto_tree_add_item_ret_uint(ptr noundef %46, i32 noundef %47, ptr noundef %48, i32 noundef %49, i32 noundef 2, i32 noundef 0, ptr noundef %19)
  %51 = load i32, ptr %15, align 4
  %52 = add i32 %51, 2
  store i32 %52, ptr %15, align 4
  %53 = load ptr, ptr %23, align 8
  %54 = load i32, ptr %19, align 4
  %55 = add i32 %54, 3
  call void @proto_item_set_len(ptr noundef %53, i32 noundef %55)
  %56 = load ptr, ptr %8, align 8
  %57 = load i32, ptr %15, align 4
  %58 = call zeroext i8 @tvb_get_uint8(ptr noundef %56, i32 noundef %57)
  %59 = zext i8 %58 to i32
  store i32 %59, ptr %21, align 4
  %60 = load i32, ptr %21, align 4
  %61 = and i32 %60, 192
  %62 = lshr i32 %61, 6
  store i32 %62, ptr %20, align 4
  %63 = load i32, ptr %21, align 4
  %64 = and i32 %63, 15
  store i32 %64, ptr %21, align 4
  %65 = load i32, ptr %20, align 4
  %66 = icmp eq i32 %65, 3
  br i1 %66, label %67, label %71

67:                                               ; preds = %32
  %68 = load ptr, ptr %16, align 8
  %69 = load ptr, ptr %8, align 8
  %70 = load i32, ptr %15, align 4
  call void @proto_tree_add_bitmask_list(ptr noundef %68, ptr noundef %69, i32 noundef %70, i32 noundef 1, ptr noundef @de_nas_5gs_sm_mapped_eps_b_cont.mapd_eps_b_cont_flags_modify, i32 noundef 0)
  br label %75

71:                                               ; preds = %32
  %72 = load ptr, ptr %16, align 8
  %73 = load ptr, ptr %8, align 8
  %74 = load i32, ptr %15, align 4
  call void @proto_tree_add_bitmask_list(ptr noundef %72, ptr noundef %73, i32 noundef %74, i32 noundef 1, ptr noundef @de_nas_5gs_sm_mapped_eps_b_cont.mapd_eps_b_cont_flags, i32 noundef 0)
  br label %75

75:                                               ; preds = %71, %67
  %76 = load i32, ptr %15, align 4
  %77 = add i32 %76, 1
  store i32 %77, ptr %15, align 4
  store i32 1, ptr %24, align 4
  br label %78

78:                                               ; preds = %151, %75
  %79 = load i32, ptr %21, align 4
  %80 = icmp ugt i32 %79, 0
  br i1 %80, label %81, label %159

81:                                               ; preds = %78
  %82 = load ptr, ptr %16, align 8
  %83 = load ptr, ptr %8, align 8
  %84 = load i32, ptr %15, align 4
  %85 = load i32, ptr @ett_nas_5gs_sm_mapd_eps_b_cont_params_list, align 4
  %86 = load i32, ptr %24, align 4
  %87 = call ptr (ptr, ptr, i32, i32, i32, ptr, ptr, ...) @proto_tree_add_subtree_format(ptr noundef %82, ptr noundef %83, i32 noundef %84, i32 noundef -1, i32 noundef %85, ptr noundef %23, ptr noundef @.str.1769, i32 noundef %86)
  store ptr %87, ptr %17, align 8
  %88 = load ptr, ptr %17, align 8
  %89 = load i32, ptr @hf_nas_5gs_sm_mapd_eps_b_cont_param_id, align 4
  %90 = load ptr, ptr %8, align 8
  %91 = load i32, ptr %15, align 4
  %92 = call ptr @proto_tree_add_item_ret_uint(ptr noundef %88, i32 noundef %89, ptr noundef %90, i32 noundef %91, i32 noundef 1, i32 noundef 0, ptr noundef %22)
  %93 = load ptr, ptr %23, align 8
  %94 = load i32, ptr %22, align 4
  %95 = call ptr @val_to_str_const(i32 noundef %94, ptr noundef @nas_5gs_sm_mapd_eps_b_cont_param_id_vals, ptr noundef @.str.49)
  call void (ptr, ptr, ...) @proto_item_append_text(ptr noundef %93, ptr noundef @.str.48, ptr noundef %95)
  %96 = load i32, ptr %15, align 4
  %97 = add i32 %96, 1
  store i32 %97, ptr %15, align 4
  %98 = load ptr, ptr %17, align 8
  %99 = load i32, ptr @hf_nas_5gs_sm_length, align 4
  %100 = load ptr, ptr %8, align 8
  %101 = load i32, ptr %15, align 4
  %102 = call ptr @proto_tree_add_item_ret_uint(ptr noundef %98, i32 noundef %99, ptr noundef %100, i32 noundef %101, i32 noundef 1, i32 noundef 0, ptr noundef %19)
  %103 = load i32, ptr %15, align 4
  %104 = add i32 %103, 1
  store i32 %104, ptr %15, align 4
  %105 = load ptr, ptr %23, align 8
  %106 = load i32, ptr %19, align 4
  %107 = add i32 %106, 2
  call void @proto_item_set_len(ptr noundef %105, i32 noundef %107)
  %108 = load i32, ptr %22, align 4
  switch i32 %108, label %144 [
    i32 1, label %109
    i32 2, label %116
    i32 3, label %123
    i32 4, label %130
    i32 5, label %137
  ]

109:                                              ; preds = %81
  %110 = load ptr, ptr %8, align 8
  %111 = load ptr, ptr %17, align 8
  %112 = load ptr, ptr %10, align 8
  %113 = load i32, ptr %15, align 4
  %114 = load i32, ptr %19, align 4
  %115 = call zeroext i16 @de_esm_qos(ptr noundef %110, ptr noundef %111, ptr noundef %112, i32 noundef %113, i32 noundef %114, ptr noundef null, i32 noundef 0)
  br label %151

116:                                              ; preds = %81
  %117 = load ptr, ptr %8, align 8
  %118 = load ptr, ptr %17, align 8
  %119 = load ptr, ptr %10, align 8
  %120 = load i32, ptr %15, align 4
  %121 = load i32, ptr %19, align 4
  %122 = call zeroext i16 @de_esm_ext_eps_qos(ptr noundef %117, ptr noundef %118, ptr noundef %119, i32 noundef %120, i32 noundef %121, ptr noundef null, i32 noundef 0)
  br label %151

123:                                              ; preds = %81
  %124 = load ptr, ptr %8, align 8
  %125 = load ptr, ptr %17, align 8
  %126 = load ptr, ptr %10, align 8
  %127 = load i32, ptr %15, align 4
  %128 = load i32, ptr %19, align 4
  %129 = call zeroext i16 @de_sm_tflow_temp(ptr noundef %124, ptr noundef %125, ptr noundef %126, i32 noundef %127, i32 noundef %128, ptr noundef null, i32 noundef 0)
  br label %151

130:                                              ; preds = %81
  %131 = load ptr, ptr %8, align 8
  %132 = load ptr, ptr %17, align 8
  %133 = load ptr, ptr %10, align 8
  %134 = load i32, ptr %15, align 4
  %135 = load i32, ptr %19, align 4
  %136 = call zeroext i16 @de_esm_apn_aggr_max_br(ptr noundef %131, ptr noundef %132, ptr noundef %133, i32 noundef %134, i32 noundef %135, ptr noundef null, i32 noundef 0)
  br label %151

137:                                              ; preds = %81
  %138 = load ptr, ptr %8, align 8
  %139 = load ptr, ptr %17, align 8
  %140 = load ptr, ptr %10, align 8
  %141 = load i32, ptr %15, align 4
  %142 = load i32, ptr %19, align 4
  %143 = call zeroext i16 @de_esm_ext_apn_agr_max_br(ptr noundef %138, ptr noundef %139, ptr noundef %140, i32 noundef %141, i32 noundef %142, ptr noundef null, i32 noundef 0)
  br label %151

144:                                              ; preds = %81
  %145 = load ptr, ptr %17, align 8
  %146 = load i32, ptr @hf_nas_5gs_sm_mapd_eps_b_cont_eps_param_cont, align 4
  %147 = load ptr, ptr %8, align 8
  %148 = load i32, ptr %15, align 4
  %149 = load i32, ptr %19, align 4
  %150 = call ptr @proto_tree_add_item(ptr noundef %145, i32 noundef %146, ptr noundef %147, i32 noundef %148, i32 noundef %149, i32 noundef 0)
  br label %151

151:                                              ; preds = %144, %137, %130, %123, %116, %109
  %152 = load i32, ptr %19, align 4
  %153 = load i32, ptr %15, align 4
  %154 = add i32 %153, %152
  store i32 %154, ptr %15, align 4
  %155 = load i32, ptr %24, align 4
  %156 = add i32 %155, 1
  store i32 %156, ptr %24, align 4
  %157 = load i32, ptr %21, align 4
  %158 = add i32 %157, -1
  store i32 %158, ptr %21, align 4
  br label %78, !llvm.loop !54

159:                                              ; preds = %78
  %160 = load i32, ptr %18, align 4
  %161 = add i32 %160, 1
  store i32 %161, ptr %18, align 4
  br label %26, !llvm.loop !55

162:                                              ; preds = %26
  %163 = load i32, ptr %12, align 4
  %164 = trunc i32 %163 to i16
  call void @llvm.lifetime.end.p0(i64 4, ptr %24) #11
  call void @llvm.lifetime.end.p0(i64 8, ptr %23) #11
  call void @llvm.lifetime.end.p0(i64 4, ptr %22) #11
  call void @llvm.lifetime.end.p0(i64 4, ptr %21) #11
  call void @llvm.lifetime.end.p0(i64 4, ptr %20) #11
  call void @llvm.lifetime.end.p0(i64 4, ptr %19) #11
  call void @llvm.lifetime.end.p0(i64 4, ptr %18) #11
  call void @llvm.lifetime.end.p0(i64 8, ptr %17) #11
  call void @llvm.lifetime.end.p0(i64 8, ptr %16) #11
  call void @llvm.lifetime.end.p0(i64 4, ptr %15) #11
  ret i16 %164
}