; Function Attrs: null_pointer_is_valid sspstrong uwtable
define internal noundef zeroext i16 @de_nas_5gs_sm_mapped_eps_b_cont(ptr noundef %0, ptr noundef %1, ptr noundef %2, i32 noundef %3, i32 noundef %4, ptr readnone captures(none) %5, i32 %6) #0 {
  %8 = alloca i32, align 4
  %9 = alloca i32, align 4
  %10 = alloca ptr, align 8
  call void @llvm.lifetime.start.p0(i64 4, ptr nonnull %8) #12
  call void @llvm.lifetime.start.p0(i64 4, ptr nonnull %9) #12
  call void @llvm.lifetime.start.p0(i64 8, ptr nonnull %10) #12
  %.not81 = icmp eq i32 %4, 0
  br i1 %.not81, label %._crit_edge80, label %.lr.ph79

.lr.ph79:                                         ; preds = %7, %._crit_edge
  %.06977 = phi i32 [ %.1.lcssa, %._crit_edge ], [ %3, %7 ]
  %.07076 = phi i32 [ %66, %._crit_edge ], [ 1, %7 ]
  %11 = load i32, ptr @ett_nas_5gs_sm_mapd_eps_b_cont, align 4
  %12 = call ptr (ptr, ptr, i32, i32, i32, ptr, ptr, ...) @proto_tree_add_subtree_format(ptr noundef %1, ptr noundef %0, i32 noundef %.06977, i32 noundef -1, i32 noundef %11, ptr noundef nonnull %10, ptr noundef nonnull @.str.1768, i32 noundef %.07076)
  %13 = load i32, ptr @hf_nas_5gs_sm_mapd_eps_b_cont_id, align 4
  %14 = call ptr @proto_tree_add_item(ptr noundef %12, i32 noundef %13, ptr noundef %0, i32 noundef %.06977, i32 noundef 1, i32 noundef 0)
  %15 = add i32 %.06977, 1
  %16 = load i32, ptr @hf_nas_5gs_sm_length, align 4
  %17 = call ptr @proto_tree_add_item_ret_uint(ptr noundef %12, i32 noundef %16, ptr noundef %0, i32 noundef %15, i32 noundef 2, i32 noundef 0, ptr noundef nonnull %8)
  %18 = add i32 %.06977, 3
  %19 = load ptr, ptr %10, align 8
  %20 = load i32, ptr %8, align 4
  %21 = add i32 %20, 3
  call void @proto_item_set_len(ptr noundef %19, i32 noundef %21)
  %22 = call zeroext i8 @tvb_get_uint8(ptr noundef %0, i32 noundef %18)
  %23 = zext i8 %22 to i32
  %24 = and i32 %23, 15
  %.mask = and i32 %23, 192
  %25 = icmp eq i32 %.mask, 192
  %de_nas_5gs_sm_mapped_eps_b_cont.mapd_eps_b_cont_flags_modify.de_nas_5gs_sm_mapped_eps_b_cont.mapd_eps_b_cont_flags = select i1 %25, ptr @de_nas_5gs_sm_mapped_eps_b_cont.mapd_eps_b_cont_flags_modify, ptr @de_nas_5gs_sm_mapped_eps_b_cont.mapd_eps_b_cont_flags
  call void @proto_tree_add_bitmask_list(ptr noundef %12, ptr noundef %0, i32 noundef %18, i32 noundef 1, ptr noundef nonnull %de_nas_5gs_sm_mapped_eps_b_cont.mapd_eps_b_cont_flags_modify.de_nas_5gs_sm_mapped_eps_b_cont.mapd_eps_b_cont_flags, i32 noundef 0)
  %26 = add i32 %.06977, 4
  %.not72 = icmp eq i32 %24, 0
  br i1 %.not72, label %._crit_edge, label %.lr.ph

.lr.ph:                                           ; preds = %.lr.ph79, %61
  %.075 = phi i32 [ %64, %61 ], [ 1, %.lr.ph79 ]
  %.06874 = phi i32 [ %65, %61 ], [ %24, %.lr.ph79 ]
  %.173 = phi i32 [ %63, %61 ], [ %26, %.lr.ph79 ]
  %27 = load i32, ptr @ett_nas_5gs_sm_mapd_eps_b_cont_params_list, align 4
  %28 = call ptr (ptr, ptr, i32, i32, i32, ptr, ptr, ...) @proto_tree_add_subtree_format(ptr noundef %12, ptr noundef %0, i32 noundef %.173, i32 noundef -1, i32 noundef %27, ptr noundef nonnull %10, ptr noundef nonnull @.str.1769, i32 noundef %.075)
  %29 = load i32, ptr @hf_nas_5gs_sm_mapd_eps_b_cont_param_id, align 4
  %30 = call ptr @proto_tree_add_item_ret_uint(ptr noundef %28, i32 noundef %29, ptr noundef %0, i32 noundef %.173, i32 noundef 1, i32 noundef 0, ptr noundef nonnull %9)
  %31 = load ptr, ptr %10, align 8
  %32 = load i32, ptr %9, align 4
  %33 = call ptr @val_to_str_const(i32 noundef %32, ptr noundef nonnull @nas_5gs_sm_mapd_eps_b_cont_param_id_vals, ptr noundef nonnull @.str.49)
  call void (ptr, ptr, ...) @proto_item_append_text(ptr noundef %31, ptr noundef nonnull @.str.48, ptr noundef %33)
  %34 = add i32 %.173, 1
  %35 = load i32, ptr @hf_nas_5gs_sm_length, align 4
  %36 = call ptr @proto_tree_add_item_ret_uint(ptr noundef %28, i32 noundef %35, ptr noundef %0, i32 noundef %34, i32 noundef 1, i32 noundef 0, ptr noundef nonnull %8)
  %37 = add i32 %.173, 2
  %38 = load ptr, ptr %10, align 8
  %39 = load i32, ptr %8, align 4
  %40 = add i32 %39, 2
  call void @proto_item_set_len(ptr noundef %38, i32 noundef %40)
  %41 = load i32, ptr %9, align 4
  switch i32 %41, label %57 [
    i32 1, label %42
    i32 2, label %45
    i32 3, label %48
    i32 4, label %51
    i32 5, label %54
  ]

42:                                               ; preds = %.lr.ph
  %43 = load i32, ptr %8, align 4
  %44 = call zeroext i16 @de_esm_qos(ptr noundef %0, ptr noundef %28, ptr noundef %2, i32 noundef %37, i32 noundef %43, ptr noundef null, i32 noundef 0)
  br label %61

45:                                               ; preds = %.lr.ph
  %46 = load i32, ptr %8, align 4
  %47 = call zeroext i16 @de_esm_ext_eps_qos(ptr noundef %0, ptr noundef %28, ptr noundef %2, i32 noundef %37, i32 noundef %46, ptr noundef null, i32 noundef 0)
  br label %61

48:                                               ; preds = %.lr.ph
  %49 = load i32, ptr %8, align 4
  %50 = call zeroext i16 @de_sm_tflow_temp(ptr noundef %0, ptr noundef %28, ptr noundef %2, i32 noundef %37, i32 noundef %49, ptr noundef null, i32 noundef 0)
  br label %61

51:                                               ; preds = %.lr.ph
  %52 = load i32, ptr %8, align 4
  %53 = call zeroext i16 @de_esm_apn_aggr_max_br(ptr noundef %0, ptr noundef %28, ptr noundef %2, i32 noundef %37, i32 noundef %52, ptr noundef null, i32 noundef 0)
  br label %61

54:                                               ; preds = %.lr.ph
  %55 = load i32, ptr %8, align 4
  %56 = call zeroext i16 @de_esm_ext_apn_agr_max_br(ptr noundef %0, ptr noundef %28, ptr noundef %2, i32 noundef %37, i32 noundef %55, ptr noundef null, i32 noundef 0)
  br label %61

57:                                               ; preds = %.lr.ph
  %58 = load i32, ptr @hf_nas_5gs_sm_mapd_eps_b_cont_eps_param_cont, align 4
  %59 = load i32, ptr %8, align 4
  %60 = call ptr @proto_tree_add_item(ptr noundef %28, i32 noundef %58, ptr noundef %0, i32 noundef %37, i32 noundef %59, i32 noundef 0)
  br label %61

61:                                               ; preds = %57, %54, %51, %48, %45, %42
  %62 = load i32, ptr %8, align 4
  %63 = add i32 %62, %37
  %64 = add nuw nsw i32 %.075, 1
  %65 = add nsw i32 %.06874, -1
  %.not = icmp eq i32 %65, 0
  br i1 %.not, label %._crit_edge, label %.lr.ph, !llvm.loop !54

._crit_edge:                                      ; preds = %61, %.lr.ph79
  %.1.lcssa = phi i32 [ %26, %.lr.ph79 ], [ %63, %61 ]
  %66 = add i32 %.07076, 1
  %67 = sub i32 %.1.lcssa, %3
  %68 = icmp ult i32 %67, %4
  br i1 %68, label %.lr.ph79, label %._crit_edge80, !llvm.loop !55

._crit_edge80:                                    ; preds = %._crit_edge, %7
  %69 = trunc i32 %4 to i16
  call void @llvm.lifetime.end.p0(i64 8, ptr nonnull %10) #12
  call void @llvm.lifetime.end.p0(i64 4, ptr nonnull %9) #12
  call void @llvm.lifetime.end.p0(i64 4, ptr nonnull %8) #12
  ret i16 %69
}